; Function Attrs: mustprogress nofree norecurse nosync nounwind willreturn memory(argmem: write) uwtable
define void @_ZN3net14SpdySettingsIRC2Ev(ptr noundef nonnull align 8 dereferenceable(58) initializes((0, 8), (16, 20), (24, 32)) %0) unnamed_addr #9 align 2 personality ptr @__gxx_personality_v0 {
  store ptr getelementptr inbounds nuw inrange(-16, 24) (i8, ptr @_ZTVN3net14SpdySettingsIRE, i64 16), ptr %0, align 8, !tbaa !20
  %2 = getelementptr inbounds nuw i8, ptr %0, i64 16
  store i32 0, ptr %2, align 8, !tbaa !45
  %3 = getelementptr inbounds nuw i8, ptr %0, i64 24
  store ptr null, ptr %3, align 8, !tbaa !50
  %4 = getelementptr inbounds nuw i8, ptr %0, i64 32
  store ptr %2, ptr %4, align 8, !tbaa !51
  %5 = getelementptr inbounds nuw i8, ptr %0, i64 40
  store ptr %2, ptr %5, align 8, !tbaa !52
  %6 = getelementptr inbounds nuw i8, ptr %0, i64 48
  store i64 0, ptr %6, align 8, !tbaa !53
  %7 = getelementptr inbounds nuw i8, ptr %0, i64 56
  store i8 0, ptr %7, align 8, !tbaa !54
  %8 = getelementptr inbounds nuw i8, ptr %0, i64 57
  store i8 0, ptr %8, align 1, !tbaa !61
  ret void
}